target datalayout = "e-m:e-p270:32:32-p271:32:32-p272:64:64-i64:64-i128:128-f80:128-n8:16:32:64-S128"
target triple = "x86_64-pc-linux-gnu"

%struct._packet_info = type { ptr, ptr, i32, i32, %struct.nstime_t, %struct.nstime_t, %struct.nstime_t, i8, ptr, ptr, ptr, ptr, %struct._address, %struct._address, %struct._address, %struct._address, %struct._address, %struct._address, i32, ptr, i8, [3 x i8], %struct.anon, i32, i32, i32, i32, ptr, i8, ptr, ptr, i16, i16, i32, i32, i16, i32, i32, ptr, ptr, ptr, i8, i8, i16, i16, i16, i32, i16, i16, ptr, ptr, ptr, ptr, ptr, i32, i32 }
%struct.nstime_t = type { i64, i32 }
%struct._address = type { i32, i32, ptr, ptr }
%struct.anon = type { i8, [3 x i8] }
%struct._proto_node = type { ptr, ptr, ptr, ptr, ptr, ptr, ptr }
%struct._opensafety_packet_info = type { %struct._opensafety_packet_frame, i16, i16, i16, i16, i8, i8, i8, i8, i32, [6 x i8], i8, %struct._opensafety_packet_crc, %union.anon }
%struct._opensafety_packet_frame = type { i8, i16, i16, i32, i16, ptr }
%struct._opensafety_packet_crc = type { i8, i16, i16, i8, i8 }
%union.anon = type { ptr }
%struct.field_info = type { ptr, i32, i32, i32, i32, i32, i32, ptr, ptr, ptr, i32, i32 }
%struct._opensafety_packet_ssdo = type { i8, %struct.anon.2 }
%struct.anon.2 = type { i8, i8, i8, i8, i8, i8, i8 }

@hf_oss_msg_category = internal global i32 0, align 4

; Function Attrs: inlinehint nounwind null_pointer_is_valid sspstrong uwtable
define internal void @proto_item_set_generated(ptr noundef %0) #6 {
  %2 = alloca ptr, align 8
  store ptr %0, ptr %2, align 8
  %3 = load ptr, ptr %2, align 8
  %4 = icmp ne ptr %3, null
  br i1 %4, label %5, label %24

5:                                                ; preds = %1
  br label %6

6:                                                ; preds = %5
  %7 = load ptr, ptr %2, align 8
  %8 = getelementptr inbounds nuw %struct._proto_node, ptr %7, i32 0, i32 5
  %9 = load ptr, ptr %8, align 8
  %10 = icmp ne ptr %9, null
  br i1 %10, label %11, label %22

11:                                               ; preds = %6
  %12 = load ptr, ptr %2, align 8
  %13 = getelementptr inbounds nuw %struct._proto_node, ptr %12, i32 0, i32 5
  %14 = load ptr, ptr %13, align 8
  %15 = getelementptr inbounds nuw %struct.field_info, ptr %14, i32 0, i32 6
  %16 = load i32, ptr %15, align 4
  %17 = or i32 %16, 2
  %18 = load ptr, ptr %2, align 8
  %19 = getelementptr inbounds nuw %struct._proto_node, ptr %18, i32 0, i32 5
  %20 = load ptr, ptr %19, align 8
  %21 = getelementptr inbounds nuw %struct.field_info, ptr %20, i32 0, i32 6
  store i32 %17, ptr %21, align 4
  br label %22

22:                                               ; preds = %11, %6
  br label %23

23:                                               ; preds = %22
  br label %24

24:                                               ; preds = %23, %1
  ret void
}

; Function Attrs: null_pointer_is_valid sspstrong uwtable
define internal ptr @opensafety_packet_payloadtree(ptr noundef %0, ptr noundef %1, ptr noundef %2, ptr noundef %3, i32 noundef %4) #0 {
  %6 = alloca ptr, align 8
  %7 = alloca ptr, align 8
  %8 = alloca ptr, align 8
  %9 = alloca ptr, align 8
  %10 = alloca i32, align 4
  %11 = alloca ptr, align 8
  store ptr %0, ptr %6, align 8
  store ptr %1, ptr %7, align 8
  store ptr %2, ptr %8, align 8
  store ptr %3, ptr %9, align 8
  store i32 %4, ptr %10, align 4
  call void @llvm.lifetime.start.p0(i64 8, ptr %11) #12
  store ptr null, ptr %11, align 8
  %12 = load ptr, ptr %8, align 8
  %13 = load i32, ptr @hf_oss_msg_category, align 4
  %14 = load ptr, ptr %7, align 8
  %15 = load ptr, ptr %9, align 8
  %16 = getelementptr inbounds nuw %struct._opensafety_packet_info, ptr %15, i32 0, i32 0
  %17 = getelementptr inbounds nuw %struct._opensafety_packet_frame, ptr %16, i32 0, i32 1
  %18 = load i16, ptr %17, align 2
  %19 = zext i16 %18 to i32
  %20 = add i32 1, %19
  %21 = call ptr @proto_tree_add_item(ptr noundef %12, i32 noundef %13, ptr noundef %14, i32 noundef %20, i32 noundef 1, i32 noundef 0)
  store ptr %21, ptr %11, align 8
  %22 = load ptr, ptr %11, align 8
  call void @proto_item_set_generated(ptr noundef %22)
  %23 = load ptr, ptr %9, align 8
  %24 = getelementptr inbounds nuw %struct._opensafety_packet_info, ptr %23, i32 0, i32 7
  %25 = load i8, ptr %24, align 2
  %26 = zext i8 %25 to i32
  %27 = icmp eq i32 %26, 160
  br i1 %27, label %28, label %35

28:                                               ; preds = %5
  %29 = load ptr, ptr %6, align 8
  %30 = getelementptr inbounds nuw %struct._packet_info, ptr %29, i32 0, i32 51
  %31 = load ptr, ptr %30, align 8
  %32 = call noalias ptr @wmem_alloc0(ptr noundef %31, i64 noundef 48) #13
  %33 = load ptr, ptr %9, align 8
  %34 = getelementptr inbounds nuw %struct._opensafety_packet_info, ptr %33, i32 0, i32 13
  store ptr %32, ptr %34, align 8
  br label %80

35:                                               ; preds = %5
  %36 = load ptr, ptr %9, align 8
  %37 = getelementptr inbounds nuw %struct._opensafety_packet_info, ptr %36, i32 0, i32 7
  %38 = load i8, ptr %37, align 2
  %39 = zext i8 %38 to i32
  %40 = icmp eq i32 %39, 224
  br i1 %40, label %47, label %41

41:                                               ; preds = %35
  %42 = load ptr, ptr %9, align 8
  %43 = getelementptr inbounds nuw %struct._opensafety_packet_info, ptr %42, i32 0, i32 7
  %44 = load i8, ptr %43, align 2
  %45 = zext i8 %44 to i32
  %46 = icmp eq i32 %45, 232
  br i1 %46, label %47, label %65

47:                                               ; preds = %41, %35
  %48 = load ptr, ptr %6, align 8
  %49 = getelementptr inbounds nuw %struct._packet_info, ptr %48, i32 0, i32 51
  %50 = load ptr, ptr %49, align 8
  %51 = call noalias ptr @wmem_alloc0(ptr noundef %50, i64 noundef 8) #13
  %52 = load ptr, ptr %9, align 8
  %53 = getelementptr inbounds nuw %struct._opensafety_packet_info, ptr %52, i32 0, i32 13
  store ptr %51, ptr %53, align 8
  %54 = load ptr, ptr %9, align 8
  %55 = getelementptr inbounds nuw %struct._opensafety_packet_info, ptr %54, i32 0, i32 7
  %56 = load i8, ptr %55, align 2
  %57 = zext i8 %56 to i32
  %58 = icmp eq i32 %57, 232
  br i1 %58, label %59, label %64

59:                                               ; preds = %47
  %60 = load ptr, ptr %9, align 8
  %61 = getelementptr inbounds nuw %struct._opensafety_packet_info, ptr %60, i32 0, i32 13
  %62 = load ptr, ptr %61, align 8
  %63 = getelementptr inbounds nuw %struct._opensafety_packet_ssdo, ptr %62, i32 0, i32 0
  store i8 1, ptr %63, align 1
  br label %64

64:                                               ; preds = %59, %47
  br label %79

65:                                               ; preds = %41
  %66 = load ptr, ptr %9, align 8
  %67 = getelementptr inbounds nuw %struct._opensafety_packet_info, ptr %66, i32 0, i32 7
  %68 = load i8, ptr %67, align 2
  %69 = zext i8 %68 to i32
  %70 = icmp eq i32 %69, 192
  br i1 %70, label %71, label %78

71:                                               ; preds = %65
  %72 = load ptr, ptr %6, align 8
  %73 = getelementptr inbounds nuw %struct._packet_info, ptr %72, i32 0, i32 51
  %74 = load ptr, ptr %73, align 8
  %75 = call noalias ptr @wmem_alloc0(ptr noundef %74, i64 noundef 24) #13
  %76 = load ptr, ptr %9, align 8
  %77 = getelementptr inbounds nuw %struct._opensafety_packet_info, ptr %76, i32 0, i32 13
  store ptr %75, ptr %77, align 8
  br label %78

78:                                               ; preds = %71, %65
  br label %79

79:                                               ; preds = %78, %64
  br label %80

80:                                               ; preds = %79, %28
  %81 = load ptr, ptr %11, align 8
  %82 = load i32, ptr %10, align 4
  %83 = call ptr @proto_item_add_subtree(ptr noundef %81, i32 noundef %82)
  call void @llvm.lifetime.end.p0(i64 8, ptr %11) #12
  ret ptr %83
}