; Function Attrs: null_pointer_is_valid sspstrong uwtable
define internal fastcc ptr @opensafety_packet_payloadtree(ptr noundef readonly captures(none) %0, ptr noundef %1, ptr noundef %2, ptr noundef captures(none) %3, i32 noundef %4) unnamed_addr #0 {
  %6 = load i32, ptr @hf_oss_msg_category, align 4
  %7 = getelementptr inbounds nuw i8, ptr %3, i64 2
  %8 = load i16, ptr %7, align 2
  %9 = zext i16 %8 to i32
  %10 = add nuw nsw i32 %9, 1
  %11 = tail call ptr @proto_tree_add_item(ptr noundef %2, i32 noundef %6, ptr noundef %1, i32 noundef %10, i32 noundef 1, i32 noundef 0)
  %.not.i = icmp eq ptr %11, null
  br i1 %.not.i, label %proto_item_set_generated.exit, label %12

12:                                               ; preds = %5
  %13 = getelementptr inbounds nuw i8, ptr %11, i64 40
  %14 = load ptr, ptr %13, align 8
  %.not5.i = icmp eq ptr %14, null
  br i1 %.not5.i, label %proto_item_set_generated.exit, label %15

15:                                               ; preds = %12
  %16 = getelementptr inbounds nuw i8, ptr %14, i64 28
  %17 = load i32, ptr %16, align 4
  %18 = or i32 %17, 2
  store i32 %18, ptr %16, align 4
  br label %proto_item_set_generated.exit

proto_item_set_generated.exit:                    ; preds = %5, %12, %15
  %19 = getelementptr inbounds nuw i8, ptr %3, i64 34
  %20 = load i8, ptr %19, align 2
  %21 = add i8 %20, 96
  %22 = tail call i8 @llvm.fshl.i8(i8 %21, i8 %21, i8 5)
  switch i8 %22, label %41 [
    i8 0, label %23
    i8 8, label %28
    i8 9, label %28
    i8 4, label %36
  ]

23:                                               ; preds = %proto_item_set_generated.exit
  %24 = getelementptr inbounds nuw i8, ptr %0, i64 408
  %25 = load ptr, ptr %24, align 8
  %26 = tail call noalias dereferenceable_or_null(48) ptr @wmem_alloc0(ptr noundef %25, i64 noundef 48) #13
  %27 = getelementptr inbounds nuw i8, ptr %3, i64 56
  store ptr %26, ptr %27, align 8
  br label %41

28:                                               ; preds = %proto_item_set_generated.exit, %proto_item_set_generated.exit
  %29 = getelementptr inbounds nuw i8, ptr %0, i64 408
  %30 = load ptr, ptr %29, align 8
  %31 = tail call noalias dereferenceable_or_null(8) ptr @wmem_alloc0(ptr noundef %30, i64 noundef 8) #13
  %32 = getelementptr inbounds nuw i8, ptr %3, i64 56
  store ptr %31, ptr %32, align 8
  %33 = load i8, ptr %19, align 2
  %34 = icmp eq i8 %33, -24
  br i1 %34, label %35, label %41

35:                                               ; preds = %28
  store i8 1, ptr %31, align 1
  br label %41

36:                                               ; preds = %proto_item_set_generated.exit
  %37 = getelementptr inbounds nuw i8, ptr %0, i64 408
  %38 = load ptr, ptr %37, align 8
  %39 = tail call noalias dereferenceable_or_null(24) ptr @wmem_alloc0(ptr noundef %38, i64 noundef 24) #13
  %40 = getelementptr inbounds nuw i8, ptr %3, i64 56
  store ptr %39, ptr %40, align 8
  br label %41

41:                                               ; preds = %proto_item_set_generated.exit, %35, %28, %36, %23
  %42 = tail call ptr @proto_item_add_subtree(ptr noundef %11, i32 noundef %4)
  ret ptr %42
}